target datalayout = "e-m:e-p270:32:32-p271:32:32-p272:64:64-i64:64-i128:128-f80:128-n8:16:32:64-S128"
target triple = "x86_64-pc-linux-gnu"

@.str.15 = private unnamed_addr constant [2 x i8] c"\0A\00", align 1
@.str.24 = private unnamed_addr constant [3 x i8] c"%d\00", align 1

; Function Attrs: inlinehint nounwind uwtable
define internal i32 @Pla_TtGetBit(ptr noundef %0, i32 noundef %1) #4 {
  %3 = alloca ptr, align 8
  %4 = alloca i32, align 4
  store ptr %0, ptr %3, align 8, !tbaa !47
  store i32 %1, ptr %4, align 4, !tbaa !14
  %5 = load ptr, ptr %3, align 8, !tbaa !47
  %6 = load i32, ptr %4, align 4, !tbaa !14
  %7 = ashr i32 %6, 6
  %8 = sext i32 %7 to i64
  %9 = getelementptr inbounds i64, ptr %5, i64 %8
  %10 = load i64, ptr %9, align 8, !tbaa !50
  %11 = load i32, ptr %4, align 4, !tbaa !14
  %12 = and i32 %11, 63
  %13 = zext i32 %12 to i64
  %14 = lshr i64 %10, %13
  %15 = trunc i64 %14 to i32
  %16 = and i32 %15, 1
  ret i32 %16
}

; Function Attrs: nounwind uwtable
define void @Pla_PrintBinary(ptr noundef %0, i32 noundef %1) #0 {
  %3 = alloca ptr, align 8
  %4 = alloca i32, align 4
  %5 = alloca i32, align 4
  store ptr %0, ptr %3, align 8, !tbaa !47
  store i32 %1, ptr %4, align 4, !tbaa !14
  call void @llvm.lifetime.start.p0(i64 4, ptr %5) #10
  store i32 0, ptr %5, align 4, !tbaa !14
  br label %6

6:                                                ; preds = %15, %2
  %7 = load i32, ptr %5, align 4, !tbaa !14
  %8 = load i32, ptr %4, align 4, !tbaa !14
  %9 = icmp slt i32 %7, %8
  br i1 %9, label %10, label %18

10:                                               ; preds = %6
  %11 = load ptr, ptr %3, align 8, !tbaa !47
  %12 = load i32, ptr %5, align 4, !tbaa !14
  %13 = call i32 @Pla_TtGetBit(ptr noundef %11, i32 noundef %12)
  %14 = call i32 (ptr, ...) @printf(ptr noundef @.str.24, i32 noundef %13)
  br label %15

15:                                               ; preds = %10
  %16 = load i32, ptr %5, align 4, !tbaa !14
  %17 = add nsw i32 %16, 1
  store i32 %17, ptr %5, align 4, !tbaa !14
  br label %6, !llvm.loop !52

18:                                               ; preds = %6
  %19 = call i32 (ptr, ...) @printf(ptr noundef @.str.15)
  call void @llvm.lifetime.end.p0(i64 4, ptr %5) #10
  ret void
}