; Function Attrs: nofree nounwind uwtable
define void @Pla_PrintBinary(ptr noundef readonly captures(none) %0, i32 noundef %1) local_unnamed_addr #5 {
  %3 = icmp sgt i32 %1, 0
  br i1 %3, label %.lr.ph, label %._crit_edge

.lr.ph:                                           ; preds = %2, %.lr.ph
  %.04 = phi i32 [ %14, %.lr.ph ], [ 0, %2 ]
  %4 = lshr i32 %.04, 6
  %5 = zext nneg i32 %4 to i64
  %6 = getelementptr inbounds nuw i64, ptr %0, i64 %5
  %7 = load i64, ptr %6, align 8, !tbaa !32
  %8 = and i32 %.04, 63
  %9 = zext nneg i32 %8 to i64
  %10 = lshr i64 %7, %9
  %11 = trunc i64 %10 to i32
  %12 = and i32 %11, 1
  %13 = tail call i32 (ptr, ...) @printf(ptr noundef nonnull dereferenceable(1) @.str.24, i32 noundef %12)
  %14 = add nuw nsw i32 %.04, 1
  %exitcond.not = icmp eq i32 %14, %1
  br i1 %exitcond.not, label %._crit_edge, label %.lr.ph, !llvm.loop !35

._crit_edge:                                      ; preds = %.lr.ph, %2
  %putchar = tail call i32 @putchar(i32 10)
  ret void
}